target datalayout = "e-m:e-p270:32:32-p271:32:32-p272:64:64-i64:64-i128:128-f80:128-n8:16:32:64-S128"
target triple = "x86_64-pc-linux-gnu"

%struct.ident_t = type { i32, i32, i32, i32, ptr }
%"class.open3d::t::geometry::kernel::TArrayIndexer" = type { ptr, i32, i32, [4 x i32] }
%"struct.std::__atomic_base" = type { i32 }
%class.anon.234 = type { i32, %"class.open3d::t::geometry::kernel::TArrayIndexer", %"class.open3d::t::geometry::kernel::TArrayIndexer", ptr }

@1 = private unnamed_addr constant %struct.ident_t { i32 0, i32 514, i32 0, i32 22, ptr @0 }, align 8

; Function Attrs: inlinehint mustprogress nounwind ssp uwtable
define linkonce_odr hidden void @_ZNK6open3d1t8geometry6kernel13TArrayIndexerIiE15CoordToWorkloadEiiiiPi(ptr noundef nonnull align 8 dereferenceable(32) %0, i32 noundef %1, i32 noundef %2, i32 noundef %3, i32 noundef %4, ptr noundef %5) #6 comdat align 2 {
  %7 = alloca ptr, align 8
  %8 = alloca i32, align 4
  %9 = alloca i32, align 4
  %10 = alloca i32, align 4
  %11 = alloca i32, align 4
  %12 = alloca ptr, align 8
  store ptr %0, ptr %7, align 8, !tbaa !55
  store i32 %1, ptr %8, align 4, !tbaa !9
  store i32 %2, ptr %9, align 4, !tbaa !9
  store i32 %3, ptr %10, align 4, !tbaa !9
  store i32 %4, ptr %11, align 4, !tbaa !9
  store ptr %5, ptr %12, align 8, !tbaa !15
  %13 = load ptr, ptr %7, align 8
  %14 = load i32, ptr %11, align 4, !tbaa !9
  %15 = getelementptr inbounds nuw %"class.open3d::t::geometry::kernel::TArrayIndexer", ptr %13, i32 0, i32 3
  %16 = getelementptr inbounds [4 x i32], ptr %15, i64 0, i64 1
  %17 = load i32, ptr %16, align 4, !tbaa !9
  %18 = mul nsw i32 %14, %17
  %19 = load i32, ptr %10, align 4, !tbaa !9
  %20 = add nsw i32 %18, %19
  %21 = getelementptr inbounds nuw %"class.open3d::t::geometry::kernel::TArrayIndexer", ptr %13, i32 0, i32 3
  %22 = getelementptr inbounds [4 x i32], ptr %21, i64 0, i64 2
  %23 = load i32, ptr %22, align 8, !tbaa !9
  %24 = mul nsw i32 %20, %23
  %25 = load i32, ptr %9, align 4, !tbaa !9
  %26 = add nsw i32 %24, %25
  %27 = getelementptr inbounds nuw %"class.open3d::t::geometry::kernel::TArrayIndexer", ptr %13, i32 0, i32 3
  %28 = getelementptr inbounds [4 x i32], ptr %27, i64 0, i64 3
  %29 = load i32, ptr %28, align 4, !tbaa !9
  %30 = mul nsw i32 %26, %29
  %31 = load i32, ptr %8, align 4, !tbaa !9
  %32 = add nsw i32 %30, %31
  %33 = load ptr, ptr %12, align 8, !tbaa !15
  store i32 %32, ptr %33, align 4, !tbaa !9
  ret void
}

; Function Attrs: alwaysinline mustprogress nounwind ssp uwtable
define linkonce_odr hidden noundef i32 @_ZNSt13__atomic_baseIiE9fetch_addEiSt12memory_order(ptr noundef nonnull align 4 dereferenceable(4) %0, i32 noundef %1, i32 noundef %2) #10 comdat align 2 {
  %4 = alloca ptr, align 8
  %5 = alloca i32, align 4
  %6 = alloca i32, align 4
  %7 = alloca i32, align 4
  %8 = alloca i32, align 4
  store ptr %0, ptr %4, align 8, !tbaa !831
  store i32 %1, ptr %5, align 4, !tbaa !9
  store i32 %2, ptr %6, align 4, !tbaa !833
  %9 = load ptr, ptr %4, align 8
  %10 = getelementptr inbounds nuw %"struct.std::__atomic_base", ptr %9, i32 0, i32 0
  %11 = load i32, ptr %6, align 4, !tbaa !833
  %12 = load i32, ptr %5, align 4, !tbaa !9
  store i32 %12, ptr %7, align 4, !tbaa !9
  switch i32 %11, label %13 [
    i32 1, label %16
    i32 2, label %16
    i32 3, label %19
    i32 4, label %22
    i32 5, label %25
  ]

13:                                               ; preds = %3
  %14 = load i32, ptr %7, align 4
  %15 = atomicrmw add ptr %10, i32 %14 monotonic, align 4
  store i32 %15, ptr %8, align 4
  br label %28

16:                                               ; preds = %3, %3
  %17 = load i32, ptr %7, align 4
  %18 = atomicrmw add ptr %10, i32 %17 acquire, align 4
  store i32 %18, ptr %8, align 4
  br label %28

19:                                               ; preds = %3
  %20 = load i32, ptr %7, align 4
  %21 = atomicrmw add ptr %10, i32 %20 release, align 4
  store i32 %21, ptr %8, align 4
  br label %28

22:                                               ; preds = %3
  %23 = load i32, ptr %7, align 4
  %24 = atomicrmw add ptr %10, i32 %23 acq_rel, align 4
  store i32 %24, ptr %8, align 4
  br label %28

25:                                               ; preds = %3
  %26 = load i32, ptr %7, align 4
  %27 = atomicrmw add ptr %10, i32 %26 seq_cst, align 4
  store i32 %27, ptr %8, align 4
  br label %28

28:                                               ; preds = %25, %22, %19, %16, %13
  %29 = load i32, ptr %8, align 4, !tbaa !9
  ret i32 %29
}

; Function Attrs: inlinehint mustprogress ssp uwtable
define linkonce_odr hidden noundef ptr @_ZNK6open3d1t8geometry6kernel13TArrayIndexerIiE10GetDataPtrIiEEPT_iiii(ptr noundef nonnull align 8 dereferenceable(32) %0, i32 noundef %1, i32 noundef %2, i32 noundef %3, i32 noundef %4) #2 comdat align 2 {
  %6 = alloca ptr, align 8
  %7 = alloca i32, align 4
  %8 = alloca i32, align 4
  %9 = alloca i32, align 4
  %10 = alloca i32, align 4
  %11 = alloca i32, align 4
  store ptr %0, ptr %6, align 8, !tbaa !55
  store i32 %1, ptr %7, align 4, !tbaa !9
  store i32 %2, ptr %8, align 4, !tbaa !9
  store i32 %3, ptr %9, align 4, !tbaa !9
  store i32 %4, ptr %10, align 4, !tbaa !9
  %12 = load ptr, ptr %6, align 8
  call void @llvm.lifetime.start.p0(i64 4, ptr %11) #25
  %13 = load i32, ptr %7, align 4, !tbaa !9
  %14 = load i32, ptr %8, align 4, !tbaa !9
  %15 = load i32, ptr %9, align 4, !tbaa !9
  %16 = load i32, ptr %10, align 4, !tbaa !9
  call void @_ZNK6open3d1t8geometry6kernel13TArrayIndexerIiE15CoordToWorkloadEiiiiPi(ptr noundef nonnull align 8 dereferenceable(32) %12, i32 noundef %13, i32 noundef %14, i32 noundef %15, i32 noundef %16, ptr noundef %11)
  %17 = getelementptr inbounds nuw %"class.open3d::t::geometry::kernel::TArrayIndexer", ptr %12, i32 0, i32 0
  %18 = load ptr, ptr %17, align 8, !tbaa !64
  %19 = load i32, ptr %11, align 4, !tbaa !9
  %20 = getelementptr inbounds nuw %"class.open3d::t::geometry::kernel::TArrayIndexer", ptr %12, i32 0, i32 1
  %21 = load i32, ptr %20, align 8, !tbaa !63
  %22 = mul nsw i32 %19, %21
  %23 = sext i32 %22 to i64
  %24 = getelementptr inbounds i8, ptr %18, i64 %23
  call void @llvm.lifetime.end.p0(i64 4, ptr %11) #25
  ret ptr %24
}

; Function Attrs: inlinehint mustprogress nounwind ssp uwtable
define linkonce_odr hidden void @_ZNK6open3d1t8geometry6kernel13TArrayIndexerIiE15WorkloadToCoordEiPiS5_S5_(ptr noundef nonnull align 8 dereferenceable(32) %0, i32 noundef %1, ptr noundef %2, ptr noundef %3, ptr noundef %4) #6 comdat align 2 {
  %6 = alloca ptr, align 8
  %7 = alloca i32, align 4
  %8 = alloca ptr, align 8
  %9 = alloca ptr, align 8
  %10 = alloca ptr, align 8
  store ptr %0, ptr %6, align 8, !tbaa !55
  store i32 %1, ptr %7, align 4, !tbaa !9
  store ptr %2, ptr %8, align 8, !tbaa !15
  store ptr %3, ptr %9, align 8, !tbaa !15
  store ptr %4, ptr %10, align 8, !tbaa !15
  %11 = load ptr, ptr %6, align 8
  %12 = load i32, ptr %7, align 4, !tbaa !9
  %13 = getelementptr inbounds nuw %"class.open3d::t::geometry::kernel::TArrayIndexer", ptr %11, i32 0, i32 3
  %14 = getelementptr inbounds [4 x i32], ptr %13, i64 0, i64 2
  %15 = load i32, ptr %14, align 8, !tbaa !9
  %16 = srem i32 %12, %15
  %17 = load ptr, ptr %8, align 8, !tbaa !15
  store i32 %16, ptr %17, align 4, !tbaa !9
  %18 = load i32, ptr %7, align 4, !tbaa !9
  %19 = load ptr, ptr %8, align 8, !tbaa !15
  %20 = load i32, ptr %19, align 4, !tbaa !9
  %21 = sub nsw i32 %18, %20
  %22 = getelementptr inbounds nuw %"class.open3d::t::geometry::kernel::TArrayIndexer", ptr %11, i32 0, i32 3
  %23 = getelementptr inbounds [4 x i32], ptr %22, i64 0, i64 2
  %24 = load i32, ptr %23, align 8, !tbaa !9
  %25 = sdiv i32 %21, %24
  store i32 %25, ptr %7, align 4, !tbaa !9
  %26 = load i32, ptr %7, align 4, !tbaa !9
  %27 = getelementptr inbounds nuw %"class.open3d::t::geometry::kernel::TArrayIndexer", ptr %11, i32 0, i32 3
  %28 = getelementptr inbounds [4 x i32], ptr %27, i64 0, i64 1
  %29 = load i32, ptr %28, align 4, !tbaa !9
  %30 = srem i32 %26, %29
  %31 = load ptr, ptr %9, align 8, !tbaa !15
  store i32 %30, ptr %31, align 4, !tbaa !9
  %32 = load i32, ptr %7, align 4, !tbaa !9
  %33 = getelementptr inbounds nuw %"class.open3d::t::geometry::kernel::TArrayIndexer", ptr %11, i32 0, i32 3
  %34 = getelementptr inbounds [4 x i32], ptr %33, i64 0, i64 1
  %35 = load i32, ptr %34, align 4, !tbaa !9
  %36 = sdiv i32 %32, %35
  %37 = load ptr, ptr %10, align 8, !tbaa !15
  store i32 %36, ptr %37, align 4, !tbaa !9
  ret void
}

; Function Attrs: noinline noreturn nounwind ssp uwtable
define linkonce_odr hidden void @__clang_call_terminate(ptr noundef %0) #23 comdat {
  %2 = call ptr @__cxa_begin_catch(ptr %0) #25
  call void @_ZSt9terminatev() #32
  unreachable
}

; Function Attrs: inlinehint mustprogress ssp uwtable
define linkonce_odr hidden void @_ZZN6open3d1t8geometry6kernel10voxel_grid22ExtractTriangleMeshCPUIfffEEvRKNS_4core6TensorES8_S8_S8_S8_RKNS1_9TensorMapERS6_SC_SC_SC_iffRiENKUliE0_clEi(ptr noundef nonnull align 8 dereferenceable(80) %0, i32 noundef %1) #2 comdat align 2 {
  %3 = alloca ptr, align 8
  %4 = alloca i32, align 4
  %5 = alloca i32, align 4
  %6 = alloca i32, align 4
  %7 = alloca i32, align 4
  %8 = alloca i32, align 4
  %9 = alloca i32, align 4
  %10 = alloca ptr, align 8
  %11 = alloca i32, align 4
  %12 = alloca i32, align 4
  %13 = alloca i32, align 4
  store ptr %0, ptr %3, align 8, !tbaa !32
  store i32 %1, ptr %4, align 4, !tbaa !9
  %14 = load ptr, ptr %3, align 8
  call void @llvm.lifetime.start.p0(i64 4, ptr %5) #25
  %15 = load i32, ptr %4, align 4, !tbaa !9
  %16 = getelementptr inbounds nuw %class.anon.234, ptr %14, i32 0, i32 0
  %17 = load i32, ptr %16, align 8, !tbaa !1423
  %18 = sdiv i32 %15, %17
  store i32 %18, ptr %5, align 4, !tbaa !9
  call void @llvm.lifetime.start.p0(i64 4, ptr %6) #25
  %19 = load i32, ptr %4, align 4, !tbaa !9
  %20 = getelementptr inbounds nuw %class.anon.234, ptr %14, i32 0, i32 0
  %21 = load i32, ptr %20, align 8, !tbaa !1423
  %22 = srem i32 %19, %21
  store i32 %22, ptr %6, align 4, !tbaa !9
  call void @llvm.lifetime.start.p0(i64 4, ptr %7) #25
  call void @llvm.lifetime.start.p0(i64 4, ptr %8) #25
  call void @llvm.lifetime.start.p0(i64 4, ptr %9) #25
  %23 = getelementptr inbounds nuw %class.anon.234, ptr %14, i32 0, i32 1
  %24 = load i32, ptr %6, align 4, !tbaa !9
  call void @_ZNK6open3d1t8geometry6kernel13TArrayIndexerIiE15WorkloadToCoordEiPiS5_S5_(ptr noundef nonnull align 8 dereferenceable(32) %23, i32 noundef %24, ptr noundef %7, ptr noundef %8, ptr noundef %9)
  call void @llvm.lifetime.start.p0(i64 8, ptr %10) #25
  %25 = getelementptr inbounds nuw %class.anon.234, ptr %14, i32 0, i32 2
  %26 = load i32, ptr %7, align 4, !tbaa !9
  %27 = load i32, ptr %8, align 4, !tbaa !9
  %28 = load i32, ptr %9, align 4, !tbaa !9
  %29 = load i32, ptr %5, align 4, !tbaa !9
  %30 = call noundef ptr @_ZNK6open3d1t8geometry6kernel13TArrayIndexerIiE10GetDataPtrIiEEPT_iiii(ptr noundef nonnull align 8 dereferenceable(32) %25, i32 noundef %26, i32 noundef %27, i32 noundef %28, i32 noundef %29)
  store ptr %30, ptr %10, align 8, !tbaa !15
  %31 = load ptr, ptr %10, align 8, !tbaa !15
  %32 = getelementptr inbounds i32, ptr %31, i64 0
  %33 = load i32, ptr %32, align 4, !tbaa !9
  %34 = icmp ne i32 %33, -1
  br i1 %34, label %35, label %46

35:                                               ; preds = %2
  %36 = load ptr, ptr %10, align 8, !tbaa !15
  %37 = getelementptr inbounds i32, ptr %36, i64 1
  %38 = load i32, ptr %37, align 4, !tbaa !9
  %39 = icmp ne i32 %38, -1
  br i1 %39, label %40, label %46

40:                                               ; preds = %35
  %41 = load ptr, ptr %10, align 8, !tbaa !15
  %42 = getelementptr inbounds i32, ptr %41, i64 2
  %43 = load i32, ptr %42, align 4, !tbaa !9
  %44 = icmp ne i32 %43, -1
  br i1 %44, label %45, label %46

45:                                               ; preds = %40
  store i32 1, ptr %11, align 4
  br label %71

46:                                               ; preds = %40, %35, %2
  call void @llvm.lifetime.start.p0(i64 4, ptr %12) #25
  store i32 0, ptr %12, align 4, !tbaa !9
  br label %47

47:                                               ; preds = %67, %46
  %48 = load i32, ptr %12, align 4, !tbaa !9
  %49 = icmp slt i32 %48, 3
  br i1 %49, label %51, label %50

50:                                               ; preds = %47
  store i32 2, ptr %11, align 4
  call void @llvm.lifetime.end.p0(i64 4, ptr %12) #25
  br label %70

51:                                               ; preds = %47
  call void @llvm.lifetime.start.p0(i64 4, ptr %13) #25
  %52 = load ptr, ptr %10, align 8, !tbaa !15
  %53 = load i32, ptr %12, align 4, !tbaa !9
  %54 = sext i32 %53 to i64
  %55 = getelementptr inbounds i32, ptr %52, i64 %54
  %56 = load i32, ptr %55, align 4, !tbaa !9
  store i32 %56, ptr %13, align 4, !tbaa !9
  %57 = load i32, ptr %13, align 4, !tbaa !9
  %58 = icmp ne i32 %57, -1
  br i1 %58, label %59, label %60

59:                                               ; preds = %51
  store i32 4, ptr %11, align 4
  br label %64

60:                                               ; preds = %51
  %61 = getelementptr inbounds nuw %class.anon.234, ptr %14, i32 0, i32 3
  %62 = load ptr, ptr %61, align 8, !tbaa !1425
  %63 = call noundef i32 @_ZNSt13__atomic_baseIiE9fetch_addEiSt12memory_order(ptr noundef nonnull align 4 dereferenceable(4) %62, i32 noundef 1, i32 noundef 5) #25
  store i32 0, ptr %11, align 4
  br label %64

64:                                               ; preds = %60, %59
  call void @llvm.lifetime.end.p0(i64 4, ptr %13) #25
  %65 = load i32, ptr %11, align 4
  switch i32 %65, label %74 [
    i32 0, label %66
    i32 4, label %67
  ]

66:                                               ; preds = %64
  br label %67

67:                                               ; preds = %66, %64
  %68 = load i32, ptr %12, align 4, !tbaa !9
  %69 = add nsw i32 %68, 1
  store i32 %69, ptr %12, align 4, !tbaa !9
  br label %47, !llvm.loop !1445

70:                                               ; preds = %50
  store i32 0, ptr %11, align 4
  br label %71

71:                                               ; preds = %70, %45
  call void @llvm.lifetime.end.p0(i64 8, ptr %10) #25
  call void @llvm.lifetime.end.p0(i64 4, ptr %9) #25
  call void @llvm.lifetime.end.p0(i64 4, ptr %8) #25
  call void @llvm.lifetime.end.p0(i64 4, ptr %7) #25
  call void @llvm.lifetime.end.p0(i64 4, ptr %6) #25
  call void @llvm.lifetime.end.p0(i64 4, ptr %5) #25
  %72 = load i32, ptr %11, align 4
  switch i32 %72, label %74 [
    i32 0, label %73
    i32 1, label %73
  ]

73:                                               ; preds = %71, %71
  ret void

74:                                               ; preds = %71, %64
  unreachable
}

; Function Attrs: alwaysinline norecurse nounwind ssp uwtable
define internal void @_ZN6open3d4core15ParallelForCPU_IZNS_1t8geometry6kernel10voxel_grid22ExtractTriangleMeshCPUIfffEEvRKNS0_6TensorES9_S9_S9_S9_RKNS3_9TensorMapERS7_SD_SD_SD_iffRiEUliE0_EEvRKNS0_6DeviceElRKT_.omp_outlined(ptr noalias noundef %0, ptr noalias noundef %1, ptr noundef nonnull align 8 dereferenceable(8) %2, ptr noundef nonnull align 8 dereferenceable(80) %3) #24 personality ptr @__gxx_personality_v0 {
  %5 = alloca ptr, align 8
  %6 = alloca ptr, align 8
  %7 = alloca ptr, align 8
  %8 = alloca ptr, align 8
  %9 = alloca ptr, align 8
  %10 = alloca i64, align 8
  %11 = alloca i64, align 8
  %12 = alloca i64, align 8
  %13 = alloca i64, align 8
  %14 = alloca i64, align 8
  %15 = alloca i64, align 8
  %16 = alloca i64, align 8
  %17 = alloca i32, align 4
  %18 = alloca i64, align 8
  store ptr %0, ptr %5, align 8, !tbaa !15
  store ptr %1, ptr %6, align 8, !tbaa !15
  store ptr %2, ptr %7, align 8, !tbaa !19
  store ptr %3, ptr %8, align 8, !tbaa !32
  %19 = load ptr, ptr %7, align 8, !tbaa !19
  %20 = load ptr, ptr %8, align 8, !tbaa !32
  store ptr %20, ptr %9, align 8
  call void @llvm.lifetime.start.p0(i64 8, ptr %10) #25
  call void @llvm.lifetime.start.p0(i64 8, ptr %11) #25
  %21 = load i64, ptr %19, align 8, !tbaa !21
  store i64 %21, ptr %11, align 8, !tbaa !21
  call void @llvm.lifetime.start.p0(i64 8, ptr %12) #25
  %22 = load i64, ptr %11, align 8, !tbaa !21
  %23 = sub nsw i64 %22, 0
  %24 = sdiv i64 %23, 1
  %25 = sub nsw i64 %24, 1
  store i64 %25, ptr %12, align 8, !tbaa !21
  call void @llvm.lifetime.start.p0(i64 8, ptr %13) #25
  store i64 0, ptr %13, align 8, !tbaa !21
  call void @llvm.lifetime.end.p0(i64 8, ptr %13) #25
  %26 = load i64, ptr %11, align 8, !tbaa !21
  %27 = icmp slt i64 0, %26
  br i1 %27, label %28, label %63

28:                                               ; preds = %4
  call void @llvm.lifetime.start.p0(i64 8, ptr %14) #25
  store i64 0, ptr %14, align 8, !tbaa !21
  call void @llvm.lifetime.start.p0(i64 8, ptr %15) #25
  %29 = load i64, ptr %12, align 8, !tbaa !21
  store i64 %29, ptr %15, align 8, !tbaa !21
  call void @llvm.lifetime.start.p0(i64 8, ptr %16) #25
  store i64 1, ptr %16, align 8, !tbaa !21
  call void @llvm.lifetime.start.p0(i64 4, ptr %17) #25
  store i32 0, ptr %17, align 4, !tbaa !9
  call void @llvm.lifetime.start.p0(i64 8, ptr %18) #25
  %30 = load ptr, ptr %5, align 8
  %31 = load i32, ptr %30, align 4, !tbaa !9
  call void @__kmpc_for_static_init_8(ptr @1, i32 %31, i32 34, ptr %17, ptr %14, ptr %15, ptr %16, i64 1, i64 1)
  %32 = load i64, ptr %15, align 8, !tbaa !21
  %33 = load i64, ptr %12, align 8, !tbaa !21
  %34 = icmp sgt i64 %32, %33
  br i1 %34, label %35, label %37

35:                                               ; preds = %28
  %36 = load i64, ptr %12, align 8, !tbaa !21
  br label %39

37:                                               ; preds = %28
  %38 = load i64, ptr %15, align 8, !tbaa !21
  br label %39

39:                                               ; preds = %37, %35
  %40 = phi i64 [ %36, %35 ], [ %38, %37 ]
  store i64 %40, ptr %15, align 8, !tbaa !21
  %41 = load i64, ptr %14, align 8, !tbaa !21
  store i64 %41, ptr %10, align 8, !tbaa !21
  br label %42

42:                                               ; preds = %56, %39
  %43 = load i64, ptr %10, align 8, !tbaa !21
  %44 = load i64, ptr %15, align 8, !tbaa !21
  %45 = icmp sle i64 %43, %44
  br i1 %45, label %47, label %46

46:                                               ; preds = %42
  br label %59

47:                                               ; preds = %42
  %48 = load i64, ptr %10, align 8, !tbaa !21
  %49 = mul nsw i64 %48, 1
  %50 = add nsw i64 0, %49
  store i64 %50, ptr %18, align 8, !tbaa !21
  %51 = load ptr, ptr %9, align 8, !tbaa !32
  %52 = load i64, ptr %18, align 8, !tbaa !21
  %53 = trunc i64 %52 to i32
  invoke void @_ZZN6open3d1t8geometry6kernel10voxel_grid22ExtractTriangleMeshCPUIfffEEvRKNS_4core6TensorES8_S8_S8_S8_RKNS1_9TensorMapERS6_SC_SC_SC_iffRiENKUliE0_clEi(ptr noundef nonnull align 8 dereferenceable(80) %51, i32 noundef %53)
          to label %54 unwind label %64

54:                                               ; preds = %47
  br label %55

55:                                               ; preds = %54
  br label %56

56:                                               ; preds = %55
  %57 = load i64, ptr %10, align 8, !tbaa !21
  %58 = add nsw i64 %57, 1
  store i64 %58, ptr %10, align 8, !tbaa !21
  br label %42

59:                                               ; preds = %46
  br label %60

60:                                               ; preds = %59
  %61 = load ptr, ptr %5, align 8
  %62 = load i32, ptr %61, align 4, !tbaa !9
  call void @__kmpc_for_static_fini(ptr @1, i32 %62)
  call void @llvm.lifetime.end.p0(i64 8, ptr %18) #25
  call void @llvm.lifetime.end.p0(i64 4, ptr %17) #25
  call void @llvm.lifetime.end.p0(i64 8, ptr %16) #25
  call void @llvm.lifetime.end.p0(i64 8, ptr %15) #25
  call void @llvm.lifetime.end.p0(i64 8, ptr %14) #25
  br label %63

63:                                               ; preds = %60, %4
  call void @llvm.lifetime.end.p0(i64 8, ptr %12) #25
  call void @llvm.lifetime.end.p0(i64 8, ptr %11) #25
  call void @llvm.lifetime.end.p0(i64 8, ptr %10) #25
  ret void

64:                                               ; preds = %47
  %65 = landingpad { ptr, i32 }
          catch ptr null
  %66 = extractvalue { ptr, i32 } %65, 0
  call void @__clang_call_terminate(ptr %66) #32
  unreachable
}