; Function Attrs: alwaysinline norecurse nounwind ssp uwtable
define internal void @_ZN6open3d4core15ParallelForCPU_IZNS_1t8geometry6kernel10voxel_grid22ExtractTriangleMeshCPUIfffEEvRKNS0_6TensorES9_S9_S9_S9_RKNS3_9TensorMapERS7_SD_SD_SD_iffRiEUliE0_EEvRKNS0_6DeviceElRKT_.omp_outlined(ptr noalias noundef readonly captures(none) %0, ptr noalias readnone captures(none) %1, ptr noundef nonnull readonly align 8 captures(none) dereferenceable(8) %2, ptr noundef nonnull readonly align 8 captures(none) dereferenceable(80) %3) #24 personality ptr @__gxx_personality_v0 {
  %5 = alloca i64, align 8
  %6 = alloca i64, align 8
  %7 = alloca i64, align 8
  %8 = alloca i32, align 4
  %9 = load i64, ptr %2, align 8, !tbaa !12
  %10 = icmp sgt i64 %9, 0
  br i1 %10, label %11, label %67

11:                                               ; preds = %4
  %12 = add nsw i64 %9, -1
  call void @llvm.lifetime.start.p0(i64 8, ptr nonnull %5) #25
  store i64 0, ptr %5, align 8, !tbaa !12
  call void @llvm.lifetime.start.p0(i64 8, ptr nonnull %6) #25
  store i64 %12, ptr %6, align 8, !tbaa !12
  call void @llvm.lifetime.start.p0(i64 8, ptr nonnull %7) #25
  store i64 1, ptr %7, align 8, !tbaa !12
  call void @llvm.lifetime.start.p0(i64 4, ptr nonnull %8) #25
  store i32 0, ptr %8, align 4, !tbaa !19
  %13 = load i32, ptr %0, align 4, !tbaa !19
  call void @__kmpc_for_static_init_8(ptr nonnull @1, i32 %13, i32 34, ptr nonnull %8, ptr nonnull %5, ptr nonnull %6, ptr nonnull %7, i64 1, i64 1)
  %14 = load i64, ptr %6, align 8, !tbaa !12
  %15 = call i64 @llvm.smin.i64(i64 %14, i64 %12)
  store i64 %15, ptr %6, align 8, !tbaa !12
  %16 = load i64, ptr %5, align 8, !tbaa !12
  %.not13 = icmp sgt i64 %16, %15
  br i1 %.not13, label %._crit_edge, label %.lr.ph

.lr.ph:                                           ; preds = %11
  %17 = getelementptr inbounds nuw i8, ptr %3, i64 32
  %18 = getelementptr inbounds nuw i8, ptr %3, i64 28
  %19 = getelementptr inbounds nuw i8, ptr %3, i64 40
  %20 = getelementptr inbounds nuw i8, ptr %3, i64 60
  %21 = getelementptr inbounds nuw i8, ptr %3, i64 64
  %22 = getelementptr inbounds nuw i8, ptr %3, i64 68
  %23 = getelementptr inbounds nuw i8, ptr %3, i64 48
  %24 = getelementptr inbounds nuw i8, ptr %3, i64 72
  br label %25

25:                                               ; preds = %.lr.ph, %_ZZN6open3d1t8geometry6kernel10voxel_grid22ExtractTriangleMeshCPUIfffEEvRKNS_4core6TensorES8_S8_S8_S8_RKNS1_9TensorMapERS6_SC_SC_SC_iffRiENKUliE0_clEi.exit
  %26 = phi i64 [ %15, %.lr.ph ], [ %65, %_ZZN6open3d1t8geometry6kernel10voxel_grid22ExtractTriangleMeshCPUIfffEEvRKNS_4core6TensorES8_S8_S8_S8_RKNS1_9TensorMapERS6_SC_SC_SC_iffRiENKUliE0_clEi.exit ]
  %.014 = phi i64 [ %16, %.lr.ph ], [ %66, %_ZZN6open3d1t8geometry6kernel10voxel_grid22ExtractTriangleMeshCPUIfffEEvRKNS_4core6TensorES8_S8_S8_S8_RKNS1_9TensorMapERS6_SC_SC_SC_iffRiENKUliE0_clEi.exit ]
  %27 = trunc i64 %.014 to i32
  %28 = load i32, ptr %3, align 8, !tbaa !1053
  %29 = sdiv i32 %27, %28
  %30 = srem i32 %27, %28
  %31 = load i32, ptr %17, align 8, !tbaa !19
  %32 = srem i32 %30, %31
  %33 = sdiv i32 %30, %31
  %34 = load i32, ptr %18, align 4, !tbaa !19
  %35 = srem i32 %33, %34
  %36 = sdiv i32 %33, %34
  %37 = load i32, ptr %20, align 4, !tbaa !19
  %38 = mul nsw i32 %37, %29
  %39 = add nsw i32 %38, %36
  %40 = load i32, ptr %21, align 8, !tbaa !19
  %41 = mul nsw i32 %39, %40
  %42 = add nsw i32 %41, %35
  %43 = load i32, ptr %22, align 4, !tbaa !19
  %44 = mul nsw i32 %42, %43
  %45 = add nsw i32 %44, %32
  %46 = load ptr, ptr %19, align 8, !tbaa !25
  %47 = load i32, ptr %23, align 8, !tbaa !24
  %48 = mul nsw i32 %45, %47
  %49 = sext i32 %48 to i64
  %50 = getelementptr inbounds i8, ptr %46, i64 %49
  %51 = load i32, ptr %50, align 4, !tbaa !19
  %.not.i = icmp eq i32 %51, -1
  br i1 %.not.i, label %.preheader, label %52

52:                                               ; preds = %25
  %53 = getelementptr inbounds nuw i8, ptr %50, i64 4
  %54 = load i32, ptr %53, align 4, !tbaa !19
  %.not12.i = icmp eq i32 %54, -1
  br i1 %.not12.i, label %.preheader, label %55

55:                                               ; preds = %52
  %56 = getelementptr inbounds nuw i8, ptr %50, i64 8
  %57 = load i32, ptr %56, align 4, !tbaa !19
  %.not13.i = icmp eq i32 %57, -1
  br i1 %.not13.i, label %.preheader, label %_ZZN6open3d1t8geometry6kernel10voxel_grid22ExtractTriangleMeshCPUIfffEEvRKNS_4core6TensorES8_S8_S8_S8_RKNS1_9TensorMapERS6_SC_SC_SC_iffRiENKUliE0_clEi.exit

.preheader:                                       ; preds = %55, %52, %25
  br label %58

58:                                               ; preds = %.preheader, %64
  %indvars.iv.i = phi i64 [ %indvars.iv.next.i, %64 ], [ 0, %.preheader ]
  %59 = getelementptr inbounds nuw i32, ptr %50, i64 %indvars.iv.i
  %60 = load i32, ptr %59, align 4, !tbaa !19
  %.not14.i = icmp eq i32 %60, -1
  br i1 %.not14.i, label %61, label %64

61:                                               ; preds = %58
  %62 = load ptr, ptr %24, align 8, !tbaa !1055
  %63 = atomicrmw add ptr %62, i32 1 seq_cst, align 4
  br label %64

64:                                               ; preds = %61, %58
  %indvars.iv.next.i = add nuw nsw i64 %indvars.iv.i, 1
  %exitcond.not.i = icmp eq i64 %indvars.iv.next.i, 3
  br i1 %exitcond.not.i, label %_ZZN6open3d1t8geometry6kernel10voxel_grid22ExtractTriangleMeshCPUIfffEEvRKNS_4core6TensorES8_S8_S8_S8_RKNS1_9TensorMapERS6_SC_SC_SC_iffRiENKUliE0_clEi.exit.loopexit, label %58, !llvm.loop !1071

_ZZN6open3d1t8geometry6kernel10voxel_grid22ExtractTriangleMeshCPUIfffEEvRKNS_4core6TensorES8_S8_S8_S8_RKNS1_9TensorMapERS6_SC_SC_SC_iffRiENKUliE0_clEi.exit.loopexit: ; preds = %64
  %.pre = load i64, ptr %6, align 8, !tbaa !12
  br label %_ZZN6open3d1t8geometry6kernel10voxel_grid22ExtractTriangleMeshCPUIfffEEvRKNS_4core6TensorES8_S8_S8_S8_RKNS1_9TensorMapERS6_SC_SC_SC_iffRiENKUliE0_clEi.exit

_ZZN6open3d1t8geometry6kernel10voxel_grid22ExtractTriangleMeshCPUIfffEEvRKNS_4core6TensorES8_S8_S8_S8_RKNS1_9TensorMapERS6_SC_SC_SC_iffRiENKUliE0_clEi.exit: ; preds = %_ZZN6open3d1t8geometry6kernel10voxel_grid22ExtractTriangleMeshCPUIfffEEvRKNS_4core6TensorES8_S8_S8_S8_RKNS1_9TensorMapERS6_SC_SC_SC_iffRiENKUliE0_clEi.exit.loopexit, %55
  %65 = phi i64 [ %.pre, %_ZZN6open3d1t8geometry6kernel10voxel_grid22ExtractTriangleMeshCPUIfffEEvRKNS_4core6TensorES8_S8_S8_S8_RKNS1_9TensorMapERS6_SC_SC_SC_iffRiENKUliE0_clEi.exit.loopexit ], [ %26, %55 ]
  %66 = add nsw i64 %.014, 1
  %.not.not = icmp slt i64 %.014, %65
  br i1 %.not.not, label %25, label %._crit_edge

._crit_edge:                                      ; preds = %_ZZN6open3d1t8geometry6kernel10voxel_grid22ExtractTriangleMeshCPUIfffEEvRKNS_4core6TensorES8_S8_S8_S8_RKNS1_9TensorMapERS6_SC_SC_SC_iffRiENKUliE0_clEi.exit, %11
  call void @__kmpc_for_static_fini(ptr nonnull @1, i32 %13)
  call void @llvm.lifetime.end.p0(i64 4, ptr nonnull %8) #25
  call void @llvm.lifetime.end.p0(i64 8, ptr nonnull %7) #25
  call void @llvm.lifetime.end.p0(i64 8, ptr nonnull %6) #25
  call void @llvm.lifetime.end.p0(i64 8, ptr nonnull %5) #25
  br label %67

67:                                               ; preds = %._crit_edge, %4
  ret void
}